target datalayout = "e-m:e-p270:32:32-p271:32:32-p272:64:64-i64:64-i128:128-f80:128-n8:16:32:64-S128"
target triple = "x86_64-pc-linux-gnu"

%struct.TupleTableSlotOps = type { i64, ptr, ptr, ptr, ptr, ptr, ptr, ptr, ptr, ptr, ptr, ptr, ptr }
%struct.RelationData = type { %struct.RelFileLocator, ptr, i32, i32, i8, i8, i8, i8, i8, i32, i32, i32, i32, ptr, ptr, i32, %struct.LockInfoData, ptr, ptr, ptr, ptr, ptr, i8, ptr, ptr, ptr, ptr, ptr, ptr, i32, ptr, i8, ptr, ptr, i32, i8, i32, ptr, i8, ptr, ptr, ptr, ptr, ptr, ptr, ptr, i32, ptr, ptr, ptr, ptr, ptr, ptr, ptr, ptr, ptr, ptr, ptr, ptr, ptr, ptr, ptr, ptr, ptr, ptr, ptr, i32, i8, ptr }
%struct.RelFileLocator = type { i32, i32, i32 }
%struct.LockInfoData = type { %struct.LockRelId }
%struct.LockRelId = type { i32, i32 }
%struct.ObjectAddress = type { i32, i32, i32 }
%struct.TupleTableSlot = type { i32, i16, i16, ptr, ptr, ptr, ptr, ptr, %struct.ItemPointerData, i32 }
%struct.ItemPointerData = type { %struct.BlockIdData, i16 }
%struct.BlockIdData = type { i16, i16 }
%struct.TupleDescData = type { i32, i32, i32, i32, ptr, [0 x %struct.CompactAttribute] }
%struct.CompactAttribute = type { i32, i16, i8, i8, i8, i8, i8, i8, i8 }

@Mode = external global i32, align 4
@TTSOpsHeapTuple = external constant %struct.TupleTableSlotOps, align 8

; Function Attrs: inlinehint nounwind uwtable
define internal i64 @CharGetDatum(i8 noundef signext %0) #3 {
  %2 = alloca i8, align 1
  store i8 %0, ptr %2, align 1
  %3 = load i8, ptr %2, align 1
  %4 = sext i8 %3 to i64
  ret i64 %4
}

; Function Attrs: inlinehint nounwind uwtable
define internal i64 @Int32GetDatum(i32 noundef %0) #3 {
  %2 = alloca i32, align 4
  store i32 %0, ptr %2, align 4
  %3 = load i32, ptr %2, align 4
  %4 = sext i32 %3 to i64
  ret i64 %4
}

; Function Attrs: inlinehint nounwind uwtable
define internal i64 @ObjectIdGetDatum(i32 noundef %0) #3 {
  %2 = alloca i32, align 4
  store i32 %0, ptr %2, align 4
  %3 = load i32, ptr %2, align 4
  %4 = zext i32 %3 to i64
  ret i64 %4
}

; Function Attrs: inlinehint nounwind uwtable
define internal ptr @ExecClearTuple(ptr noundef %0) #3 {
  %2 = alloca ptr, align 8
  store ptr %0, ptr %2, align 8
  %3 = load ptr, ptr %2, align 8
  %4 = getelementptr inbounds nuw %struct.TupleTableSlot, ptr %3, i32 0, i32 3
  %5 = load ptr, ptr %4, align 8
  %6 = getelementptr inbounds nuw %struct.TupleTableSlotOps, ptr %5, i32 0, i32 3
  %7 = load ptr, ptr %6, align 8
  %8 = load ptr, ptr %2, align 8
  call void %7(ptr noundef %8)
  %9 = load ptr, ptr %2, align 8
  ret ptr %9
}

; Function Attrs: nounwind uwtable
define internal zeroext i1 @isObjectPinned(ptr noundef %0) #0 {
  %2 = alloca ptr, align 8
  store ptr %0, ptr %2, align 8
  %3 = load ptr, ptr %2, align 8
  %4 = getelementptr inbounds nuw %struct.ObjectAddress, ptr %3, i32 0, i32 0
  %5 = load i32, ptr %4, align 4
  %6 = load ptr, ptr %2, align 8
  %7 = getelementptr inbounds nuw %struct.ObjectAddress, ptr %6, i32 0, i32 1
  %8 = load i32, ptr %7, align 4
  %9 = call zeroext i1 @IsPinnedObject(i32 noundef %5, i32 noundef %8)
  ret i1 %9
}

; Function Attrs: nounwind uwtable
define dso_local void @recordMultipleDependencies(ptr noundef %0, ptr noundef %1, i32 noundef %2, i32 noundef %3) #0 {
  %5 = alloca ptr, align 8
  %6 = alloca ptr, align 8
  %7 = alloca i32, align 4
  %8 = alloca i32, align 4
  %9 = alloca ptr, align 8
  %10 = alloca ptr, align 8
  %11 = alloca ptr, align 8
  %12 = alloca i32, align 4
  %13 = alloca i32, align 4
  %14 = alloca i32, align 4
  %15 = alloca i32, align 4
  %16 = alloca i32, align 4
  store ptr %0, ptr %5, align 8
  store ptr %1, ptr %6, align 8
  store i32 %2, ptr %7, align 4
  store i32 %3, ptr %8, align 4
  call void @llvm.lifetime.start.p0(i64 8, ptr %9) #6
  call void @llvm.lifetime.start.p0(i64 8, ptr %10) #6
  call void @llvm.lifetime.start.p0(i64 8, ptr %11) #6
  call void @llvm.lifetime.start.p0(i64 4, ptr %12) #6
  call void @llvm.lifetime.start.p0(i64 4, ptr %13) #6
  call void @llvm.lifetime.start.p0(i64 4, ptr %14) #6
  call void @llvm.lifetime.start.p0(i64 4, ptr %15) #6
  %17 = load i32, ptr %7, align 4
  %18 = icmp sle i32 %17, 0
  br i1 %18, label %19, label %20

19:                                               ; preds = %4
  store i32 1, ptr %16, align 4
  br label %235

20:                                               ; preds = %4
  %21 = load i32, ptr @Mode, align 4
  %22 = icmp eq i32 %21, 0
  br i1 %22, label %23, label %24

23:                                               ; preds = %20
  store i32 1, ptr %16, align 4
  br label %235

24:                                               ; preds = %20
  %25 = call ptr @table_open(i32 noundef 2608, i32 noundef 3)
  store ptr %25, ptr %9, align 8
  %26 = load i32, ptr %7, align 4
  %27 = sext i32 %26 to i64
  %28 = icmp ult i64 %27, 2340
  br i1 %28, label %29, label %32

29:                                               ; preds = %24
  %30 = load i32, ptr %7, align 4
  %31 = sext i32 %30 to i64
  br label %33

32:                                               ; preds = %24
  br label %33

33:                                               ; preds = %32, %29
  %34 = phi i64 [ %31, %29 ], [ 2340, %32 ]
  %35 = trunc i64 %34 to i32
  store i32 %35, ptr %13, align 4
  %36 = load i32, ptr %13, align 4
  %37 = sext i32 %36 to i64
  %38 = mul i64 8, %37
  %39 = call ptr @palloc(i64 noundef %38)
  store ptr %39, ptr %11, align 8
  store ptr null, ptr %10, align 8
  store i32 0, ptr %15, align 4
  store i32 0, ptr %14, align 4
  store i32 0, ptr %12, align 4
  br label %40

40:                                               ; preds = %194, %33
  %41 = load i32, ptr %12, align 4
  %42 = load i32, ptr %7, align 4
  %43 = icmp slt i32 %41, %42
  br i1 %43, label %44, label %199

44:                                               ; preds = %40
  %45 = load ptr, ptr %6, align 8
  %46 = call zeroext i1 @isObjectPinned(ptr noundef %45)
  br i1 %46, label %47, label %48

47:                                               ; preds = %44
  br label %194

48:                                               ; preds = %44
  %49 = load i32, ptr %14, align 4
  %50 = load i32, ptr %13, align 4
  %51 = icmp slt i32 %49, %50
  br i1 %51, label %52, label %63

52:                                               ; preds = %48
  %53 = load ptr, ptr %9, align 8
  %54 = getelementptr inbounds nuw %struct.RelationData, ptr %53, i32 0, i32 14
  %55 = load ptr, ptr %54, align 8
  %56 = call ptr @MakeSingleTupleTableSlot(ptr noundef %55, ptr noundef @TTSOpsHeapTuple)
  %57 = load ptr, ptr %11, align 8
  %58 = load i32, ptr %15, align 4
  %59 = sext i32 %58 to i64
  %60 = getelementptr inbounds ptr, ptr %57, i64 %59
  store ptr %56, ptr %60, align 8
  %61 = load i32, ptr %14, align 4
  %62 = add i32 %61, 1
  store i32 %62, ptr %14, align 4
  br label %63

63:                                               ; preds = %52, %48
  %64 = load ptr, ptr %11, align 8
  %65 = load i32, ptr %15, align 4
  %66 = sext i32 %65 to i64
  %67 = getelementptr inbounds ptr, ptr %64, i64 %66
  %68 = load ptr, ptr %67, align 8
  %69 = call ptr @ExecClearTuple(ptr noundef %68)
  %70 = load ptr, ptr %6, align 8
  %71 = getelementptr inbounds nuw %struct.ObjectAddress, ptr %70, i32 0, i32 0
  %72 = load i32, ptr %71, align 4
  %73 = call i64 @ObjectIdGetDatum(i32 noundef %72)
  %74 = load ptr, ptr %11, align 8
  %75 = load i32, ptr %15, align 4
  %76 = sext i32 %75 to i64
  %77 = getelementptr inbounds ptr, ptr %74, i64 %76
  %78 = load ptr, ptr %77, align 8
  %79 = getelementptr inbounds nuw %struct.TupleTableSlot, ptr %78, i32 0, i32 5
  %80 = load ptr, ptr %79, align 8
  %81 = getelementptr inbounds i64, ptr %80, i64 3
  store i64 %73, ptr %81, align 8
  %82 = load ptr, ptr %6, align 8
  %83 = getelementptr inbounds nuw %struct.ObjectAddress, ptr %82, i32 0, i32 1
  %84 = load i32, ptr %83, align 4
  %85 = call i64 @ObjectIdGetDatum(i32 noundef %84)
  %86 = load ptr, ptr %11, align 8
  %87 = load i32, ptr %15, align 4
  %88 = sext i32 %87 to i64
  %89 = getelementptr inbounds ptr, ptr %86, i64 %88
  %90 = load ptr, ptr %89, align 8
  %91 = getelementptr inbounds nuw %struct.TupleTableSlot, ptr %90, i32 0, i32 5
  %92 = load ptr, ptr %91, align 8
  %93 = getelementptr inbounds i64, ptr %92, i64 4
  store i64 %85, ptr %93, align 8
  %94 = load ptr, ptr %6, align 8
  %95 = getelementptr inbounds nuw %struct.ObjectAddress, ptr %94, i32 0, i32 2
  %96 = load i32, ptr %95, align 4
  %97 = call i64 @Int32GetDatum(i32 noundef %96)
  %98 = load ptr, ptr %11, align 8
  %99 = load i32, ptr %15, align 4
  %100 = sext i32 %99 to i64
  %101 = getelementptr inbounds ptr, ptr %98, i64 %100
  %102 = load ptr, ptr %101, align 8
  %103 = getelementptr inbounds nuw %struct.TupleTableSlot, ptr %102, i32 0, i32 5
  %104 = load ptr, ptr %103, align 8
  %105 = getelementptr inbounds i64, ptr %104, i64 5
  store i64 %97, ptr %105, align 8
  %106 = load i32, ptr %8, align 4
  %107 = trunc i32 %106 to i8
  %108 = call i64 @CharGetDatum(i8 noundef signext %107)
  %109 = load ptr, ptr %11, align 8
  %110 = load i32, ptr %15, align 4
  %111 = sext i32 %110 to i64
  %112 = getelementptr inbounds ptr, ptr %109, i64 %111
  %113 = load ptr, ptr %112, align 8
  %114 = getelementptr inbounds nuw %struct.TupleTableSlot, ptr %113, i32 0, i32 5
  %115 = load ptr, ptr %114, align 8
  %116 = getelementptr inbounds i64, ptr %115, i64 6
  store i64 %108, ptr %116, align 8
  %117 = load ptr, ptr %5, align 8
  %118 = getelementptr inbounds nuw %struct.ObjectAddress, ptr %117, i32 0, i32 0
  %119 = load i32, ptr %118, align 4
  %120 = call i64 @ObjectIdGetDatum(i32 noundef %119)
  %121 = load ptr, ptr %11, align 8
  %122 = load i32, ptr %15, align 4
  %123 = sext i32 %122 to i64
  %124 = getelementptr inbounds ptr, ptr %121, i64 %123
  %125 = load ptr, ptr %124, align 8
  %126 = getelementptr inbounds nuw %struct.TupleTableSlot, ptr %125, i32 0, i32 5
  %127 = load ptr, ptr %126, align 8
  %128 = getelementptr inbounds i64, ptr %127, i64 0
  store i64 %120, ptr %128, align 8
  %129 = load ptr, ptr %5, align 8
  %130 = getelementptr inbounds nuw %struct.ObjectAddress, ptr %129, i32 0, i32 1
  %131 = load i32, ptr %130, align 4
  %132 = call i64 @ObjectIdGetDatum(i32 noundef %131)
  %133 = load ptr, ptr %11, align 8
  %134 = load i32, ptr %15, align 4
  %135 = sext i32 %134 to i64
  %136 = getelementptr inbounds ptr, ptr %133, i64 %135
  %137 = load ptr, ptr %136, align 8
  %138 = getelementptr inbounds nuw %struct.TupleTableSlot, ptr %137, i32 0, i32 5
  %139 = load ptr, ptr %138, align 8
  %140 = getelementptr inbounds i64, ptr %139, i64 1
  store i64 %132, ptr %140, align 8
  %141 = load ptr, ptr %5, align 8
  %142 = getelementptr inbounds nuw %struct.ObjectAddress, ptr %141, i32 0, i32 2
  %143 = load i32, ptr %142, align 4
  %144 = call i64 @Int32GetDatum(i32 noundef %143)
  %145 = load ptr, ptr %11, align 8
  %146 = load i32, ptr %15, align 4
  %147 = sext i32 %146 to i64
  %148 = getelementptr inbounds ptr, ptr %145, i64 %147
  %149 = load ptr, ptr %148, align 8
  %150 = getelementptr inbounds nuw %struct.TupleTableSlot, ptr %149, i32 0, i32 5
  %151 = load ptr, ptr %150, align 8
  %152 = getelementptr inbounds i64, ptr %151, i64 2
  store i64 %144, ptr %152, align 8
  %153 = load ptr, ptr %11, align 8
  %154 = load i32, ptr %15, align 4
  %155 = sext i32 %154 to i64
  %156 = getelementptr inbounds ptr, ptr %153, i64 %155
  %157 = load ptr, ptr %156, align 8
  %158 = getelementptr inbounds nuw %struct.TupleTableSlot, ptr %157, i32 0, i32 6
  %159 = load ptr, ptr %158, align 8
  %160 = load ptr, ptr %11, align 8
  %161 = load i32, ptr %15, align 4
  %162 = sext i32 %161 to i64
  %163 = getelementptr inbounds ptr, ptr %160, i64 %162
  %164 = load ptr, ptr %163, align 8
  %165 = getelementptr inbounds nuw %struct.TupleTableSlot, ptr %164, i32 0, i32 4
  %166 = load ptr, ptr %165, align 8
  %167 = getelementptr inbounds nuw %struct.TupleDescData, ptr %166, i32 0, i32 0
  %168 = load i32, ptr %167, align 8
  %169 = sext i32 %168 to i64
  %170 = mul i64 %169, 1
  call void @llvm.memset.p0.i64(ptr align 1 %159, i8 0, i64 %170, i1 false)
  %171 = load ptr, ptr %11, align 8
  %172 = load i32, ptr %15, align 4
  %173 = sext i32 %172 to i64
  %174 = getelementptr inbounds ptr, ptr %171, i64 %173
  %175 = load ptr, ptr %174, align 8
  %176 = call ptr @ExecStoreVirtualTuple(ptr noundef %175)
  %177 = load i32, ptr %15, align 4
  %178 = add i32 %177, 1
  store i32 %178, ptr %15, align 4
  %179 = load i32, ptr %15, align 4
  %180 = load i32, ptr %13, align 4
  %181 = icmp eq i32 %179, %180
  br i1 %181, label %182, label %193

182:                                              ; preds = %63
  %183 = load ptr, ptr %10, align 8
  %184 = icmp eq ptr %183, null
  br i1 %184, label %185, label %188

185:                                              ; preds = %182
  %186 = load ptr, ptr %9, align 8
  %187 = call ptr @CatalogOpenIndexes(ptr noundef %186)
  store ptr %187, ptr %10, align 8
  br label %188

188:                                              ; preds = %185, %182
  %189 = load ptr, ptr %9, align 8
  %190 = load ptr, ptr %11, align 8
  %191 = load i32, ptr %15, align 4
  %192 = load ptr, ptr %10, align 8
  call void @CatalogTuplesMultiInsertWithInfo(ptr noundef %189, ptr noundef %190, i32 noundef %191, ptr noundef %192)
  store i32 0, ptr %15, align 4
  br label %193

193:                                              ; preds = %188, %63
  br label %194

194:                                              ; preds = %193, %47
  %195 = load i32, ptr %12, align 4
  %196 = add i32 %195, 1
  store i32 %196, ptr %12, align 4
  %197 = load ptr, ptr %6, align 8
  %198 = getelementptr inbounds nuw %struct.ObjectAddress, ptr %197, i32 1
  store ptr %198, ptr %6, align 8
  br label %40, !llvm.loop !4

199:                                              ; preds = %40
  %200 = load i32, ptr %15, align 4
  %201 = icmp sgt i32 %200, 0
  br i1 %201, label %202, label %213

202:                                              ; preds = %199
  %203 = load ptr, ptr %10, align 8
  %204 = icmp eq ptr %203, null
  br i1 %204, label %205, label %208

205:                                              ; preds = %202
  %206 = load ptr, ptr %9, align 8
  %207 = call ptr @CatalogOpenIndexes(ptr noundef %206)
  store ptr %207, ptr %10, align 8
  br label %208

208:                                              ; preds = %205, %202
  %209 = load ptr, ptr %9, align 8
  %210 = load ptr, ptr %11, align 8
  %211 = load i32, ptr %15, align 4
  %212 = load ptr, ptr %10, align 8
  call void @CatalogTuplesMultiInsertWithInfo(ptr noundef %209, ptr noundef %210, i32 noundef %211, ptr noundef %212)
  br label %213

213:                                              ; preds = %208, %199
  %214 = load ptr, ptr %10, align 8
  %215 = icmp ne ptr %214, null
  br i1 %215, label %216, label %218

216:                                              ; preds = %213
  %217 = load ptr, ptr %10, align 8
  call void @CatalogCloseIndexes(ptr noundef %217)
  br label %218

218:                                              ; preds = %216, %213
  %219 = load ptr, ptr %9, align 8
  call void @table_close(ptr noundef %219, i32 noundef 3)
  store i32 0, ptr %12, align 4
  br label %220

220:                                              ; preds = %230, %218
  %221 = load i32, ptr %12, align 4
  %222 = load i32, ptr %14, align 4
  %223 = icmp slt i32 %221, %222
  br i1 %223, label %224, label %233

224:                                              ; preds = %220
  %225 = load ptr, ptr %11, align 8
  %226 = load i32, ptr %12, align 4
  %227 = sext i32 %226 to i64
  %228 = getelementptr inbounds ptr, ptr %225, i64 %227
  %229 = load ptr, ptr %228, align 8
  call void @ExecDropSingleTupleTableSlot(ptr noundef %229)
  br label %230

230:                                              ; preds = %224
  %231 = load i32, ptr %12, align 4
  %232 = add i32 %231, 1
  store i32 %232, ptr %12, align 4
  br label %220, !llvm.loop !6

233:                                              ; preds = %220
  %234 = load ptr, ptr %11, align 8
  call void @pfree(ptr noundef %234)
  store i32 0, ptr %16, align 4
  br label %235

235:                                              ; preds = %233, %23, %19
  call void @llvm.lifetime.end.p0(i64 4, ptr %15) #6
  call void @llvm.lifetime.end.p0(i64 4, ptr %14) #6
  call void @llvm.lifetime.end.p0(i64 4, ptr %13) #6
  call void @llvm.lifetime.end.p0(i64 4, ptr %12) #6
  call void @llvm.lifetime.end.p0(i64 8, ptr %11) #6
  call void @llvm.lifetime.end.p0(i64 8, ptr %10) #6
  call void @llvm.lifetime.end.p0(i64 8, ptr %9) #6
  %236 = load i32, ptr %16, align 4
  switch i32 %236, label %238 [
    i32 0, label %237
    i32 1, label %237
  ]

237:                                              ; preds = %235, %235
  ret void

238:                                              ; preds = %235
  unreachable
}