; Function Attrs: nounwind uwtable
define dso_local void @recordMultipleDependencies(ptr noundef readonly captures(none) %0, ptr noundef readonly captures(none) %1, i32 noundef %2, i32 noundef %3) local_unnamed_addr #0 {
  %5 = icmp slt i32 %2, 1
  %6 = load i32, ptr @Mode, align 4
  %7 = icmp eq i32 %6, 0
  %or.cond = select i1 %5, i1 true, i1 %7
  br i1 %or.cond, label %109, label %8

8:                                                ; preds = %4
  %9 = tail call ptr @table_open(i32 noundef 2608, i32 noundef 3) #7
  %10 = tail call i32 @llvm.umin.i32(i32 %2, i32 2340)
  %11 = shl nuw nsw i32 %10, 3
  %12 = zext nneg i32 %11 to i64
  %13 = tail call ptr @palloc(i64 noundef %12) #7
  %14 = getelementptr inbounds nuw i8, ptr %9, i64 64
  %15 = zext i32 %3 to i64
  %sext = shl i64 %15, 56
  %16 = ashr exact i64 %sext, 56
  %17 = getelementptr inbounds nuw i8, ptr %0, i64 4
  %18 = getelementptr inbounds nuw i8, ptr %0, i64 8
  br label %.outer

.outer:                                           ; preds = %.thread, %8
  %.06884.ph = phi i32 [ %.2, %.thread ], [ 0, %8 ]
  %.07083.ph = phi ptr [ %96, %.thread ], [ %1, %8 ]
  %.07182.ph = phi i32 [ %95, %.thread ], [ 0, %8 ]
  %.07381.ph = phi ptr [ %.275, %.thread ], [ null, %8 ]
  br label %19

19:                                               ; preds = %.outer, %92
  %.085 = phi i32 [ %.1, %92 ], [ 0, %.outer ]
  %.06884 = phi i32 [ %.169, %92 ], [ %.06884.ph, %.outer ]
  %.07083 = phi ptr [ %94, %92 ], [ %.07083.ph, %.outer ]
  %.07182 = phi i32 [ %93, %92 ], [ %.07182.ph, %.outer ]
  %.070.val = load i32, ptr %.07083, align 4
  %20 = getelementptr i8, ptr %.07083, i64 4
  %.070.val80 = load i32, ptr %20, align 4
  %21 = tail call zeroext i1 @IsPinnedObject(i32 noundef %.070.val, i32 noundef %.070.val80) #7
  br i1 %21, label %92, label %22

22:                                               ; preds = %19
  %23 = icmp slt i32 %.06884, %10
  br i1 %23, label %24, label %._crit_edge90

._crit_edge90:                                    ; preds = %22
  %.phi.trans.insert = sext i32 %.085 to i64
  %.phi.trans.insert91 = getelementptr inbounds ptr, ptr %13, i64 %.phi.trans.insert
  %.pre = load ptr, ptr %.phi.trans.insert91, align 8
  br label %30

24:                                               ; preds = %22
  %25 = load ptr, ptr %14, align 8
  %26 = tail call ptr @MakeSingleTupleTableSlot(ptr noundef %25, ptr noundef nonnull @TTSOpsHeapTuple) #7
  %27 = sext i32 %.085 to i64
  %28 = getelementptr inbounds ptr, ptr %13, i64 %27
  store ptr %26, ptr %28, align 8
  %29 = add nsw i32 %.06884, 1
  br label %30

30:                                               ; preds = %._crit_edge90, %24
  %.pre-phi = phi i64 [ %.phi.trans.insert, %._crit_edge90 ], [ %27, %24 ]
  %31 = phi ptr [ %.pre, %._crit_edge90 ], [ %26, %24 ]
  %.2 = phi i32 [ %.06884, %._crit_edge90 ], [ %29, %24 ]
  %32 = getelementptr inbounds ptr, ptr %13, i64 %.pre-phi
  %33 = getelementptr inbounds nuw i8, ptr %31, i64 8
  %34 = load ptr, ptr %33, align 8
  %35 = getelementptr inbounds nuw i8, ptr %34, i64 24
  %36 = load ptr, ptr %35, align 8
  tail call void %36(ptr noundef %31) #7
  %37 = load i32, ptr %.07083, align 4
  %38 = zext i32 %37 to i64
  %39 = load ptr, ptr %32, align 8
  %40 = getelementptr inbounds nuw i8, ptr %39, i64 24
  %41 = load ptr, ptr %40, align 8
  %42 = getelementptr inbounds nuw i8, ptr %41, i64 24
  store i64 %38, ptr %42, align 8
  %43 = load i32, ptr %20, align 4
  %44 = zext i32 %43 to i64
  %45 = load ptr, ptr %32, align 8
  %46 = getelementptr inbounds nuw i8, ptr %45, i64 24
  %47 = load ptr, ptr %46, align 8
  %48 = getelementptr inbounds nuw i8, ptr %47, i64 32
  store i64 %44, ptr %48, align 8
  %49 = getelementptr inbounds nuw i8, ptr %.07083, i64 8
  %50 = load i32, ptr %49, align 4
  %51 = sext i32 %50 to i64
  %52 = load ptr, ptr %32, align 8
  %53 = getelementptr inbounds nuw i8, ptr %52, i64 24
  %54 = load ptr, ptr %53, align 8
  %55 = getelementptr inbounds nuw i8, ptr %54, i64 40
  store i64 %51, ptr %55, align 8
  %56 = load ptr, ptr %32, align 8
  %57 = getelementptr inbounds nuw i8, ptr %56, i64 24
  %58 = load ptr, ptr %57, align 8
  %59 = getelementptr inbounds nuw i8, ptr %58, i64 48
  store i64 %16, ptr %59, align 8
  %60 = load i32, ptr %0, align 4
  %61 = zext i32 %60 to i64
  %62 = load ptr, ptr %32, align 8
  %63 = getelementptr inbounds nuw i8, ptr %62, i64 24
  %64 = load ptr, ptr %63, align 8
  store i64 %61, ptr %64, align 8
  %65 = load i32, ptr %17, align 4
  %66 = zext i32 %65 to i64
  %67 = load ptr, ptr %32, align 8
  %68 = getelementptr inbounds nuw i8, ptr %67, i64 24
  %69 = load ptr, ptr %68, align 8
  %70 = getelementptr inbounds nuw i8, ptr %69, i64 8
  store i64 %66, ptr %70, align 8
  %71 = load i32, ptr %18, align 4
  %72 = sext i32 %71 to i64
  %73 = load ptr, ptr %32, align 8
  %74 = getelementptr inbounds nuw i8, ptr %73, i64 24
  %75 = load ptr, ptr %74, align 8
  %76 = getelementptr inbounds nuw i8, ptr %75, i64 16
  store i64 %72, ptr %76, align 8
  %77 = load ptr, ptr %32, align 8
  %78 = getelementptr inbounds nuw i8, ptr %77, i64 32
  %79 = load ptr, ptr %78, align 8
  %80 = getelementptr inbounds nuw i8, ptr %77, i64 16
  %81 = load ptr, ptr %80, align 8
  %82 = load i32, ptr %81, align 8
  %83 = sext i32 %82 to i64
  tail call void @llvm.memset.p0.i64(ptr align 1 %79, i8 0, i64 %83, i1 false)
  %84 = load ptr, ptr %32, align 8
  %85 = tail call ptr @ExecStoreVirtualTuple(ptr noundef %84) #7
  %86 = add i32 %.085, 1
  %87 = icmp eq i32 %86, %10
  br i1 %87, label %88, label %92

88:                                               ; preds = %30
  %89 = icmp eq ptr %.07381.ph, null
  br i1 %89, label %90, label %.thread

90:                                               ; preds = %88
  %91 = tail call ptr @CatalogOpenIndexes(ptr noundef %9) #7
  br label %.thread

92:                                               ; preds = %30, %19
  %.169 = phi i32 [ %.06884, %19 ], [ %.2, %30 ]
  %.1 = phi i32 [ %.085, %19 ], [ %86, %30 ]
  %93 = add nuw nsw i32 %.07182, 1
  %94 = getelementptr inbounds nuw i8, ptr %.07083, i64 12
  %exitcond.not = icmp eq i32 %93, %2
  br i1 %exitcond.not, label %97, label %19, !llvm.loop !4

.thread:                                          ; preds = %88, %90
  %.275 = phi ptr [ %91, %90 ], [ %.07381.ph, %88 ]
  tail call void @CatalogTuplesMultiInsertWithInfo(ptr noundef %9, ptr noundef nonnull %13, i32 noundef %10, ptr noundef %.275) #7
  %95 = add nuw nsw i32 %.07182, 1
  %96 = getelementptr inbounds nuw i8, ptr %.07083, i64 12
  %exitcond.not95 = icmp eq i32 %95, %2
  br i1 %exitcond.not95, label %.thread99, label %.outer, !llvm.loop !4

97:                                               ; preds = %92
  %98 = icmp sgt i32 %.1, 0
  br i1 %98, label %99, label %.thread99

99:                                               ; preds = %97
  %100 = icmp eq ptr %.07381.ph, null
  br i1 %100, label %101, label %103

101:                                              ; preds = %99
  %102 = tail call ptr @CatalogOpenIndexes(ptr noundef %9) #7
  br label %103

103:                                              ; preds = %101, %99
  %.4 = phi ptr [ %102, %101 ], [ %.07381.ph, %99 ]
  tail call void @CatalogTuplesMultiInsertWithInfo(ptr noundef %9, ptr noundef %13, i32 noundef %.1, ptr noundef %.4) #7
  br label %.thread99

.thread99:                                        ; preds = %.thread, %103, %97
  %.16997103 = phi i32 [ %.169, %103 ], [ %.169, %97 ], [ %.2, %.thread ]
  %.3 = phi ptr [ %.4, %103 ], [ %.07381.ph, %97 ], [ %.275, %.thread ]
  %.not = icmp eq ptr %.3, null
  br i1 %.not, label %105, label %104

104:                                              ; preds = %.thread99
  tail call void @CatalogCloseIndexes(ptr noundef nonnull %.3) #7
  br label %105

105:                                              ; preds = %104, %.thread99
  tail call void @table_close(ptr noundef %9, i32 noundef 3) #7
  %106 = icmp sgt i32 %.16997103, 0
  br i1 %106, label %.lr.ph.preheader, label %._crit_edge

.lr.ph.preheader:                                 ; preds = %105
  %wide.trip.count = zext nneg i32 %.16997103 to i64
  br label %.lr.ph

.lr.ph:                                           ; preds = %.lr.ph.preheader, %.lr.ph
  %indvars.iv = phi i64 [ 0, %.lr.ph.preheader ], [ %indvars.iv.next, %.lr.ph ]
  %107 = getelementptr inbounds nuw ptr, ptr %13, i64 %indvars.iv
  %108 = load ptr, ptr %107, align 8
  tail call void @ExecDropSingleTupleTableSlot(ptr noundef %108) #7
  %indvars.iv.next = add nuw nsw i64 %indvars.iv, 1
  %exitcond89.not = icmp eq i64 %indvars.iv.next, %wide.trip.count
  br i1 %exitcond89.not, label %._crit_edge, label %.lr.ph, !llvm.loop !6

._crit_edge:                                      ; preds = %.lr.ph, %105
  tail call void @pfree(ptr noundef %13) #7
  br label %109

109:                                              ; preds = %4, %._crit_edge
  ret void
}